Certificate:
    Data:
        Version: 3 (0x2)
        Serial Number: 1 (0x1)
    Signature Algorithm: sha256WithRSAEncryption
        Issuer: C=IN, ST=WB, L=Kolkata, O=Poziom labs/emailAddress=contact@poziomlabs.com, CN=Poziom labs Certificate
        Validity
            Not Before: Jul 15 08:07:58 2016 GMT
            Not After : Jul 14 08:07:58 2021 GMT
        Subject: C=IN, ST=WB, O=Poziom labs, CN=Poziom labs Certificate/emailAddress=contact@poziomlabs.com
        Subject Public Key Info:
            Public Key Algorithm: rsaEncryption
                Public-Key: (4096 bit)
                Modulus:
                    00:c2:31:49:ad:f5:5b:a3:c4:e4:21:90:ca:94:92:
                    8c:b3:fe:b9:6c:af:9c:33:91:93:ba:f1:f2:d3:2a:
                    4f:32:5c:d7:67:c4:1a:d9:53:d6:a6:f0:6e:69:b8:
                    f3:6d:ec:8e:a6:44:c3:cf:d0:24:23:72:0f:fa:17:
                    35:4f:5d:01:45:cb:d7:91:a5:4b:5d:43:3e:16:36:
                    bf:9d:0e:42:2f:21:10:1a:7d:2b:e1:5e:cc:b9:1a:
                    55:e3:08:ea:ae:c7:4c:f4:0d:0f:5f:5c:f0:c7:58:
                    24:93:f9:04:42:af:a9:d2:a5:c0:c2:c8:d5:c2:ad:
                    51:9b:67:7f:24:2a:e1:cc:20:4f:a8:44:d7:90:e4:
                    38:b3:5e:b3:c1:fc:64:70:fc:ad:79:7d:9f:09:6b:
                    6a:b3:29:6b:08:f0:c9:36:e8:b7:2a:86:87:d9:e1:
                    dc:5a:a2:bb:21:a6:8d:10:a6:74:ca:aa:64:8f:97:
                    e1:79:c0:40:62:5e:a7:3e:52:23:db:03:5b:81:9e:
                    0c:99:af:79:7c:00:37:d3:ae:98:e7:83:a9:12:e7:
                    db:1d:fb:7c:e6:2e:e3:14:a0:c6:b6:b5:f4:a9:d2:
                    a6:72:f8:1e:b2:b6:7e:92:a9:b2:7b:2a:59:5b:e5:
                    65:24:8c:90:20:5c:f5:fc:03:21:af:09:3d:0d:81:
                    6d:ee:20:2c:6e:19:9a:8e:da:52:b3:26:47:0d:62:
                    8b:ac:4d:54:f2:ed:78:eb:da:61:c0:db:9f:2e:9c:
                    cb:4f:df:f1:9d:98:f0:8b:07:60:04:e0:0d:10:64:
                    f8:d6:be:6a:2b:77:c6:1c:d2:1e:cb:a4:c4:4c:c9:
                    c6:a9:30:f1:a0:58:ac:59:78:a6:7f:98:8b:d1:80:
                    23:f0:3c:77:57:d5:06:21:f4:da:fb:93:8e:81:23:
                    77:36:c7:30:fd:9f:32:1e:b8:6b:a0:6f:8f:14:26:
                    60:7a:40:25:00:fd:76:72:21:b5:1a:ab:10:e5:0c:
                    95:f4:7e:b0:7d:5c:a6:76:1b:1a:70:a8:4b:1e:15:
                    d6:6f:98:28:ac:d7:57:7d:66:f3:5e:a9:a9:29:ab:
                    62:64:95:9e:db:a7:f7:48:35:61:6c:6f:6a:2c:2a:
                    00:1d:71:63:99:3d:a1:b2:e3:3e:4c:f3:f6:b3:6b:
                    de:ce:21:91:ac:cc:19:69:6f:a3:26:b7:44:98:76:
                    86:ea:58:2c:1c:e0:4e:13:a6:86:f3:ae:37:b9:3d:
                    40:a8:a3:f0:2d:7c:b1:9e:ec:c4:82:a6:9c:e4:e6:
                    eb:b9:ce:a6:5e:ba:dc:d3:3a:e5:ad:cc:c9:3e:ad:
                    89:29:6d:33:e6:73:3b:75:d3:8d:c3:7e:33:08:47:
                    f5:54:7b
                Exponent: 65537 (0x10001)
        X509v3 extensions:
            X509v3 Extended Key Usage: 
                TLS Web Server Authentication
            X509v3 CRL Distribution Points: 

                Full Name:
                  URI:http://www.example.com/example_ca.crl

    Signature Algorithm: sha256WithRSAEncryption
         a3:13:9a:02:5a:e8:9c:f7:44:e8:24:48:25:67:8d:fd:39:aa:
         2d:5c:3e:d1:f2:64:80:57:71:70:fa:59:e4:b2:af:a5:a4:da:
         41:19:6f:e5:d3:b7:ed:84:87:18:08:24:d1:bf:34:bc:9f:30:
         be:0b:7d:00:46:aa:00:c2:09:ae:31:f6:49:1d:16:4c:8c:b4:
         92:a6:7d:5a:6c:7b:93:d1:3f:8e:09:9c:31:6d:56:c9:c8:d8:
         54:17:5f:95:9a:bc:1b:d2:5c:4b:3a:a2:b8:77:f6:74:6d:5a:
         cd:53:2a:a6:32:f6:6b:b9:34:d6:60:54:af:1e:b9:63:bc:84:
         d6:70:b7:c5:3d:3f:ef:4c:b7:86:f6:68:3f:81:66:a3:d3:a8:
         1e:e7:0f:d2:68:c2:43:c4:eb:3a:8a:76:69:ff:f9:8a:fc:ce:
         fb:e9:2d:6d:01:1a:f5:5b:ef:c8:2b:b3:eb:0d:67:3f:6e:69:
         ff:80:b5:39:cc:b9:2d:bb:1a:2b:ac:2e:37:2a:ce:a1:68:db:
         74:f1:91:a2:19:81:d9:7f:83:5b:76:6b:68:5e:43:89:71:9f:
         dc:6f:57:17:b7:2d:3a:14:02:7b:aa:5b:76:d5:6e:b9:5d:a9:
         a6:fa:d5:1e:83:01:81:34:47:30:6b:e3:f4:49:68:aa:ca:c4:
         de:31:17:c1:32:cc:ba:e3:55:ec:d7:a8:c6:1a:d0:af:0f:64:
         72:68:7e:76:10:0c:fa:31:c6:ca:90:5d:bf:58:d4:e5:60:c3:
         da:e2:8a:7d:50:7d:23:01:9c:cd:53:a3:6d:28:3b:b7:af:9a:
         75:8a:72:93:81:bc:91:84:4e:ba:a0:02:4f:c6:a6:0c:1f:5f:
         03:24:6d:d4:57:f4:0e:34:8a:3e:ad:4b:df:11:e2:7d:22:9f:
         b3:1d:83:52:0c:66:9e:72:89:e9:ec:0d:cf:31:29:a6:e9:b7:
         bb:73:e3:42:39:76:c8:94:ff:66:c7:b8:df:18:55:71:97:0e:
         6b:19:ca:81:02:4c:b6:6a:87:cb:fa:46:99:fc:53:59:f9:6e:
         46:9d:b1:db:1d:a1:17:21:db:d2:e7:7f:c6:c0:a7:38:a6:41:
         54:79:ac:85:dd:45:9d:34:f7:90:7f:cc:ad:cc:1c:8d:cf:ce:
         cc:8c:f2:cc:bf:25:64:20:3a:a3:af:5c:98:88:df:0b:58:bd:
         1d:7b:9d:f9:49:33:2a:65:64:b2:28:18:57:69:b8:42:c3:9a:
         78:7a:e1:cf:e4:ec:c1:2b:da:34:17:2a:46:53:41:d7:a4:64:
         fe:d5:7f:7e:2f:5a:9f:af:07:d8:d5:a8:2c:e7:c2:74:20:cb:
         c1:e0:c4:fc:73:f5:02:3b
-----BEGIN CERTIFICATE-----
MIIFzzCCA7egAwIBAgIBATANBgkqhkiG9w0BAQsFADCBizELMAkGA1UEBhMCSU4x
CzAJBgNVBAgTAldCMRAwDgYDVQQHEwdLb2xrYXRhMRQwEgYDVQQKEwtQb3ppb20g
bGFiczElMCMGCSqGSIb3DQEJARYWY29udGFjdEBwb3ppb21sYWJzLmNvbTEgMB4G
A1UEAxMXUG96aW9tIGxhYnMgQ2VydGlmaWNhdGUwHhcNMTYwNzE1MDgwNzU4WhcN
MjEwNzE0MDgwNzU4WjB5MQswCQYDVQQGEwJJTjELMAkGA1UECBMCV0IxFDASBgNV
BAoTC1BvemlvbSBsYWJzMSAwHgYDVQQDExdQb3ppb20gbGFicyBDZXJ0aWZpY2F0
ZTElMCMGCSqGSIb3DQEJARYWY29udGFjdEBwb3ppb21sYWJzLmNvbTCCAiIwDQYJ
KoZIhvcNAQEBBQADggIPADCCAgoCggIBAMIxSa31W6PE5CGQypSSjLP+uWyvnDOR
k7rx8tMqTzJc12fEGtlT1qbwbmm4823sjqZEw8/QJCNyD/oXNU9dAUXL15GlS11D
PhY2v50OQi8hEBp9K+FezLkaVeMI6q7HTPQND19c8MdYJJP5BEKvqdKlwMLI1cKt
UZtnfyQq4cwgT6hE15DkOLNes8H8ZHD8rXl9nwlrarMpawjwyTbotyqGh9nh3Fqi
uyGmjRCmdMqqZI+X4XnAQGJepz5SI9sDW4GeDJmveXwAN9OumOeDqRLn2x37fOYu
4xSgxra19KnSpnL4HrK2fpKpsnsqWVvlZSSMkCBc9fwDIa8JPQ2Bbe4gLG4Zmo7a
UrMmRw1ii6xNVPLteOvaYcDbny6cy0/f8Z2Y8IsHYATgDRBk+Na+ait3xhzSHsuk
xEzJxqkw8aBYrFl4pn+Yi9GAI/A8d1fVBiH02vuTjoEjdzbHMP2fMh64a6BvjxQm
YHpAJQD9dnIhtRqrEOUMlfR+sH1cpnYbGnCoSx4V1m+YKKzXV31m816pqSmrYmSV
ntun90g1YWxvaiwqAB1xY5k9obLjPkzz9rNr3s4hkazMGWlvoya3RJh2hupYLBzg
ThOmhvOuN7k9QKij8C18sZ7sxIKmnOTm67nOpl663NM65a3MyT6tiSltM+ZzO3XT
jcN+MwhH9VR7AgMBAAGjTzBNMBMGA1UdJQQMMAoGCCsGAQUFBwMBMDYGA1UdHwQv
MC0wK6ApoCeGJWh0dHA6Ly93d3cuZXhhbXBsZS5jb20vZXhhbXBsZV9jYS5jcmww
DQYJKoZIhvcNAQELBQADggIBAKMTmgJa6Jz3ROgkSCVnjf05qi1cPtHyZIBXcXD6
WeSyr6Wk2kEZb+XTt+2EhxgIJNG/NLyfML4LfQBGqgDCCa4x9kkdFkyMtJKmfVps
e5PRP44JnDFtVsnI2FQXX5WavBvSXEs6orh39nRtWs1TKqYy9mu5NNZgVK8euWO8
hNZwt8U9P+9Mt4b2aD+BZqPTqB7nD9JowkPE6zqKdmn/+Yr8zvvpLW0BGvVb78gr
s+sNZz9uaf+AtTnMuS27GiusLjcqzqFo23TxkaIZgdl/g1t2a2heQ4lxn9xvVxe3
LToUAnuqW3bVbrldqab61R6DAYE0RzBr4/RJaKrKxN4xF8EyzLrjVezXqMYa0K8P
ZHJofnYQDPoxxsqQXb9Y1OVgw9riin1QfSMBnM1To20oO7evmnWKcpOBvJGETrqg
Ak/GpgwfXwMkbdRX9A40ij6tS98R4n0in7Mdg1IMZp5yiensDc8xKabpt7tz40I5
dsiU/2bHuN8YVXGXDmsZyoECTLZqh8v6Rpn8U1n5bkadsdsdoRch29Lnf8bApzim
QVR5rIXdRZ0095B/zK3MHI3PzsyM8sy/JWQgOqOvXJiI3wtYvR17nflJMyplZLIo
GFdpuELDmnh64c/k7MEr2jQXKkZTQdekZP7Vf34vWp+vB9jVqCznwnQgy8HgxPxz
9QI7
-----END CERTIFICATE-----
