Certificate:
    Data:
        Version: 3 (0x2)
        Serial Number: 2 (0x2)
    Signature Algorithm: sha256WithRSAEncryption
        Issuer: C=IN, ST=WB, L=Kolkata, O=Poziom labs/emailAddress=contact@poziomlabs.com, CN=Poziom labs Certificate
        Validity
            Not Before: Jul 15 08:21:02 2016 GMT
            Not After : Jul 15 08:21:02 2017 GMT
        Subject: C=IN, ST=WB, O=Poziom labs, CN=contact@poziomlabs.com/emailAddress=contact@poziomlabs.com
        Subject Public Key Info:
            Public Key Algorithm: rsaEncryption
                Public-Key: (4096 bit)
                Modulus:
                    00:cc:36:11:2d:0c:f4:8b:2a:43:24:b2:2b:a6:07:
                    ff:63:47:76:f8:f1:86:f7:89:29:44:7b:61:38:38:
                    00:35:6a:87:ea:87:e5:49:b4:f8:ad:f4:9e:8c:7a:
                    dc:c4:0e:6e:9e:70:a2:c6:08:57:3b:93:6a:7e:a1:
                    66:b0:c9:a5:9e:b0:b1:d3:a1:3a:c6:c5:4b:ce:46:
                    bc:5a:54:e8:0c:39:1e:5a:04:90:14:1f:c2:88:47:
                    f8:ca:af:04:83:1f:08:fa:ef:13:99:27:5a:3f:24:
                    51:f6:31:e4:0b:28:eb:88:8b:1e:67:7c:a8:ed:c5:
                    7c:2a:77:17:80:23:8d:66:35:55:80:26:db:24:f8:
                    76:40:0a:d4:68:14:5c:5b:0d:a9:fc:79:e1:34:05:
                    2a:56:ba:08:0e:4e:2d:5e:5c:1a:eb:3e:d2:4e:64:
                    8e:26:0e:24:f5:da:4a:97:43:dd:af:fd:4f:f7:ce:
                    8d:b6:c8:3c:87:dc:9a:77:02:07:89:ed:4a:7d:1d:
                    a6:5a:49:00:9f:5b:2a:a3:c0:a5:2e:40:51:eb:2e:
                    eb:d9:15:5a:03:32:bc:bb:9c:4b:03:c6:ed:0d:94:
                    34:50:f7:8d:70:dd:ce:f2:a9:4c:56:7b:98:94:96:
                    f8:7e:b1:9f:33:a4:11:d2:c5:ae:d7:d9:bb:90:6e:
                    ea:6d:be:bc:c0:5c:80:51:be:18:0e:f8:11:e0:9b:
                    e3:d3:88:cf:ee:e6:39:20:2d:ea:d8:43:8c:fc:e1:
                    24:e0:69:c6:c4:4b:e0:61:f0:c3:68:34:41:34:07:
                    a6:11:de:4c:0b:a8:4e:09:15:39:1e:39:ed:d6:34:
                    9b:52:56:d4:83:97:de:f6:3c:6e:b9:4a:ef:38:c8:
                    8a:71:ae:93:2e:89:05:97:d4:90:c7:85:0b:ff:47:
                    63:87:ff:03:88:c4:b7:89:c1:7a:74:0b:16:f3:fd:
                    5e:22:5e:be:56:6c:83:67:88:aa:30:0e:10:b5:03:
                    f7:7a:a4:e3:fd:f1:e7:9f:b2:d1:18:36:c6:ff:9e:
                    52:c7:99:53:26:3a:f3:72:a3:08:da:58:20:50:45:
                    81:61:23:7d:5d:73:d7:75:5d:21:72:b7:51:b6:d8:
                    3a:0c:75:4f:3a:a1:97:02:f2:25:db:6c:61:6c:ae:
                    02:02:44:b0:33:73:47:ec:8c:de:56:2d:98:3f:65:
                    d1:5c:0a:51:fa:9a:7e:90:d3:1b:53:d2:d2:b7:04:
                    d8:0e:79:cf:85:09:ec:24:f3:8b:7a:02:74:d2:c9:
                    eb:71:58:77:a0:17:eb:69:66:9a:42:8d:97:59:b4:
                    e1:79:b8:dc:52:62:17:17:93:3a:7b:3c:59:43:10:
                    a7:99:85
                Exponent: 65537 (0x10001)
        X509v3 extensions:
            X509v3 Extended Key Usage: 
                TLS Web Client Authentication
            X509v3 CRL Distribution Points: 

                Full Name:
                  URI:http://www.example.com/example_ca.crl

    Signature Algorithm: sha256WithRSAEncryption
         5f:1c:1e:eb:79:59:87:ee:91:0b:db:46:10:67:e3:3c:11:c7:
         1a:b5:f5:2e:3b:e8:78:e1:db:19:9b:53:20:77:ff:11:78:e1:
         a1:c0:e5:ff:33:3c:90:dd:48:a7:4c:74:bc:74:bf:b7:5d:ce:
         98:f8:2b:90:33:b2:a5:33:cd:23:9a:2d:37:b6:60:33:81:05:
         3f:49:6e:14:0f:46:50:38:07:09:2d:fc:18:fb:a3:10:34:f8:
         54:e9:ea:78:8d:3f:2d:5d:d5:d0:01:75:a9:37:90:94:fd:eb:
         a7:1d:14:80:58:eb:fe:57:db:98:36:05:5a:2a:91:55:b2:a2:
         69:95:ac:78:32:b0:9c:4f:0a:61:ee:45:27:08:92:b5:33:fd:
         fb:1c:3d:99:99:0d:b7:d2:0f:c4:72:b7:12:df:d3:a5:f2:d0:
         38:d4:6a:00:91:78:35:c0:51:02:45:c2:9d:03:f4:ce:d1:40:
         a8:56:c2:ff:d2:5e:d9:03:4b:d4:c1:07:c2:c0:ea:c6:a5:89:
         43:77:a4:70:95:27:3f:f6:58:09:34:57:6d:2e:e5:e6:d4:b4:
         fa:22:d1:01:fa:22:79:d6:c6:bf:53:33:3b:f3:39:62:21:8f:
         d9:d1:82:bc:32:50:f8:44:3d:ee:01:a9:00:c3:31:1c:63:6a:
         8d:ed:10:cc:42:f9:00:e2:e3:89:4a:60:a2:08:99:b4:8a:6b:
         49:54:fa:bd:0b:08:41:64:f5:4d:c8:7b:eb:e0:91:b3:30:b0:
         9b:c4:64:0b:ed:10:a1:45:80:70:9b:57:33:a8:8b:be:31:5f:
         8e:ac:9a:f3:76:e3:68:7e:0b:ca:40:c0:49:ee:4f:5b:22:da:
         31:aa:d1:e7:0c:7c:f6:92:3d:e1:bb:6c:38:65:05:f0:70:96:
         6a:21:79:50:93:1d:2c:7c:74:94:ad:a8:5f:6e:68:9a:f0:91:
         10:6b:2d:a0:00:be:dd:4c:ed:3f:29:4e:6e:59:ff:0c:3a:d9:
         6c:a7:33:08:78:06:a1:51:ef:3c:3f:5b:ce:63:ab:de:0b:d7:
         d4:14:eb:97:af:4c:d7:9e:6f:6e:94:76:60:06:bb:38:c3:01:
         3f:d1:48:14:7e:36:41:e8:cc:cc:c2:85:c8:eb:fa:9d:13:e4:
         40:09:06:02:f9:e5:5c:96:17:50:92:fe:ac:b8:62:f6:7b:50:
         87:22:85:2a:75:2b:6a:e1:b5:b8:8d:09:68:4f:e5:aa:8a:7c:
         0e:f0:c8:dc:5d:f0:a6:1e:41:6d:fc:4a:81:83:43:37:1a:84:
         c9:e0:cd:0a:96:ef:a5:57:e0:57:64:f8:a4:a2:d9:28:6e:d8:
         3d:79:25:60:89:0f:bf:e5
-----BEGIN CERTIFICATE-----
MIIFzjCCA7agAwIBAgIBAjANBgkqhkiG9w0BAQsFADCBizELMAkGA1UEBhMCSU4x
CzAJBgNVBAgTAldCMRAwDgYDVQQHEwdLb2xrYXRhMRQwEgYDVQQKEwtQb3ppb20g
bGFiczElMCMGCSqGSIb3DQEJARYWY29udGFjdEBwb3ppb21sYWJzLmNvbTEgMB4G
A1UEAxMXUG96aW9tIGxhYnMgQ2VydGlmaWNhdGUwHhcNMTYwNzE1MDgyMTAyWhcN
MTcwNzE1MDgyMTAyWjB4MQswCQYDVQQGEwJJTjELMAkGA1UECBMCV0IxFDASBgNV
BAoTC1BvemlvbSBsYWJzMR8wHQYDVQQDFBZjb250YWN0QHBvemlvbWxhYnMuY29t
MSUwIwYJKoZIhvcNAQkBFhZjb250YWN0QHBvemlvbWxhYnMuY29tMIICIjANBgkq
hkiG9w0BAQEFAAOCAg8AMIICCgKCAgEAzDYRLQz0iypDJLIrpgf/Y0d2+PGG94kp
RHthODgANWqH6oflSbT4rfSejHrcxA5unnCixghXO5NqfqFmsMmlnrCx06E6xsVL
zka8WlToDDkeWgSQFB/CiEf4yq8Egx8I+u8TmSdaPyRR9jHkCyjriIseZ3yo7cV8
KncXgCONZjVVgCbbJPh2QArUaBRcWw2p/HnhNAUqVroIDk4tXlwa6z7STmSOJg4k
9dpKl0Pdr/1P986Ntsg8h9yadwIHie1KfR2mWkkAn1sqo8ClLkBR6y7r2RVaAzK8
u5xLA8btDZQ0UPeNcN3O8qlMVnuYlJb4frGfM6QR0sWu19m7kG7qbb68wFyAUb4Y
DvgR4Jvj04jP7uY5IC3q2EOM/OEk4GnGxEvgYfDDaDRBNAemEd5MC6hOCRU5Hjnt
1jSbUlbUg5fe9jxuuUrvOMiKca6TLokFl9SQx4UL/0djh/8DiMS3icF6dAsW8/1e
Il6+VmyDZ4iqMA4QtQP3eqTj/fHnn7LRGDbG/55Sx5lTJjrzcqMI2lggUEWBYSN9
XXPXdV0hcrdRttg6DHVPOqGXAvIl22xhbK4CAkSwM3NH7IzeVi2YP2XRXApR+pp+
kNMbU9LStwTYDnnPhQnsJPOLegJ00snrcVh3oBfraWaaQo2XWbThebjcUmIXF5M6
ezxZQxCnmYUCAwEAAaNPME0wEwYDVR0lBAwwCgYIKwYBBQUHAwIwNgYDVR0fBC8w
LTAroCmgJ4YlaHR0cDovL3d3dy5leGFtcGxlLmNvbS9leGFtcGxlX2NhLmNybDAN
BgkqhkiG9w0BAQsFAAOCAgEAXxwe63lZh+6RC9tGEGfjPBHHGrX1LjvoeOHbGZtT
IHf/EXjhocDl/zM8kN1Ip0x0vHS/t13OmPgrkDOypTPNI5otN7ZgM4EFP0luFA9G
UDgHCS38GPujEDT4VOnqeI0/LV3V0AF1qTeQlP3rpx0UgFjr/lfbmDYFWiqRVbKi
aZWseDKwnE8KYe5FJwiStTP9+xw9mZkNt9IPxHK3Et/TpfLQONRqAJF4NcBRAkXC
nQP0ztFAqFbC/9Je2QNL1MEHwsDqxqWJQ3ekcJUnP/ZYCTRXbS7l5tS0+iLRAfoi
edbGv1MzO/M5YiGP2dGCvDJQ+EQ97gGpAMMxHGNqje0QzEL5AOLjiUpgogiZtIpr
SVT6vQsIQWT1Tch76+CRszCwm8RkC+0QoUWAcJtXM6iLvjFfjqya83bjaH4LykDA
Se5PWyLaMarR5wx89pI94btsOGUF8HCWaiF5UJMdLHx0lK2oX25omvCREGstoAC+
3UztPylObln/DDrZbKczCHgGoVHvPD9bzmOr3gvX1BTrl69M155vbpR2YAa7OMMB
P9FIFH42QejMzMKFyOv6nRPkQAkGAvnlXJYXUJL+rLhi9ntQhyKFKnUrauG1uI0J
aE/lqop8DvDI3F3wph5BbfxKgYNDNxqEyeDNCpbvpVfgV2T4pKLZKG7YPXklYIkP
v+U=
-----END CERTIFICATE-----
